target datalayout = "e-m:e-p270:32:32-p271:32:32-p272:64:64-i64:64-i128:128-f80:128-n8:16:32:64-S128"
target triple = "x86_64-unknown-linux-gnu"

%"class.proxygen::ResponseHandler" = type { ptr, ptr, ptr }
%"class.std::unique_ptr.49" = type { %"struct.std::__uniq_ptr_data.50" }
%"struct.std::__uniq_ptr_data.50" = type { %"class.std::__uniq_ptr_impl.51" }
%"class.std::__uniq_ptr_impl.51" = type { %"class.std::tuple.52" }
%"class.std::tuple.52" = type { %"struct.std::_Tuple_impl.53" }
%"struct.std::_Tuple_impl.53" = type { %"struct.std::_Head_base.56" }
%"struct.std::_Head_base.56" = type { ptr }
%"class.std::unique_ptr.32" = type { %"struct.std::__uniq_ptr_data.33" }
%"struct.std::__uniq_ptr_data.33" = type { %"class.std::__uniq_ptr_impl.34" }
%"class.std::__uniq_ptr_impl.34" = type { %"class.std::tuple.35" }
%"class.std::tuple.35" = type { %"struct.std::_Tuple_impl.36" }
%"struct.std::_Tuple_impl.36" = type { %"struct.std::_Head_base.39" }
%"struct.std::_Head_base.39" = type { ptr }
%"class.std::chrono::time_point" = type { %"class.std::chrono::duration" }
%"class.std::chrono::duration" = type { i64 }
%"struct.std::_Rb_tree_header" = type { %"struct.std::_Rb_tree_node_base", i64 }
%"struct.std::_Rb_tree_node_base" = type { i32, ptr, ptr, ptr }
%"class.std::chrono::duration.92" = type { i64 }
%"class.proxygen::HTTPTransaction" = type { %"class.folly::HHWheelTimerBase<std::chrono::duration<long, std::ratio<1, 1000>>>::Callback", %"class.folly::DelayedDestructionBase.base", %"class.proxygen::HTTPTransaction::RateLimitCallback", %"class.std::unique_ptr.61", %"class.folly::IOBufQueue", %"struct.proxygen::HTTPTransaction::BufferMeta", i8, i8, i8, i32, i64, i32, i32, ptr, ptr, ptr, %"struct.proxygen::CompressionInfo", %"class.proxygen::Window", %"class.proxygen::Window", ptr, %"class.std::unique_ptr.32", %"class.std::__cxx11::list", ptr, ptr, %"class.folly::Optional.74", %"class.folly::Optional.76", %"class.std::set", %"class.std::set", %"struct.proxygen::http2::PriorityUpdate", i64, i64, double, i64, i64, %"class.folly::Optional.74", %"class.folly::Optional.74", %"class.folly::Optional.74", %"class.folly::Optional.74", i64, %"class.std::map.85", i24, i16, i64, %"class.std::chrono::time_point", i64, %"class.folly::Optional.90", ptr, i64, i8, %"class.std::map.93", %"class.std::map.98", %"class.proxygen::HTTPTransaction::TxnWebTransport" }
%"class.folly::HHWheelTimerBase<std::chrono::duration<long, std::ratio<1, 1000>>>::Callback" = type { ptr, %"class.boost::intrusive::list_base_hook", ptr, %"class.std::chrono::time_point", i32, %"class.std::shared_ptr" }
%"class.boost::intrusive::list_base_hook" = type { %"class.boost::intrusive::generic_hook" }
%"class.boost::intrusive::generic_hook" = type { %"struct.boost::intrusive::node_holder" }
%"struct.boost::intrusive::node_holder" = type { %"struct.boost::intrusive::list_node" }
%"struct.boost::intrusive::list_node" = type { ptr, ptr }
%"class.std::shared_ptr" = type { %"class.std::__shared_ptr" }
%"class.std::__shared_ptr" = type { ptr, %"class.std::__shared_count" }
%"class.std::__shared_count" = type { ptr }
%"class.folly::DelayedDestructionBase.base" = type <{ ptr, i32 }>
%"class.proxygen::HTTPTransaction::RateLimitCallback" = type { %"class.folly::HHWheelTimerBase<std::chrono::duration<long, std::ratio<1, 1000>>>::Callback", ptr }
%"class.std::unique_ptr.61" = type { %"struct.std::__uniq_ptr_data.62" }
%"struct.std::__uniq_ptr_data.62" = type { %"class.std::__uniq_ptr_impl.63" }
%"class.std::__uniq_ptr_impl.63" = type { %"class.std::tuple.64" }
%"class.std::tuple.64" = type { %"struct.std::_Tuple_impl.65" }
%"struct.std::_Tuple_impl.65" = type { %"struct.std::_Head_base.68" }
%"struct.std::_Head_base.68" = type { ptr }
%"class.folly::IOBufQueue" = type { %"struct.folly::IOBufQueue::Options", i64, %"class.std::unique_ptr.49", ptr, ptr, %"struct.folly::IOBufQueue::WritableRangeCacheData", ptr }
%"struct.folly::IOBufQueue::Options" = type { i8 }
%"struct.folly::IOBufQueue::WritableRangeCacheData" = type <{ %"struct.std::pair.69", i8, [7 x i8] }>
%"struct.std::pair.69" = type { ptr, ptr }
%"struct.proxygen::HTTPTransaction::BufferMeta" = type { i64 }
%"struct.proxygen::CompressionInfo" = type { %"struct.proxygen::CompressionInfoPart", %"struct.proxygen::CompressionInfoPart" }
%"struct.proxygen::CompressionInfoPart" = type { i32, i32, i32, i32, i32, i32, i32 }
%"class.proxygen::Window" = type { i32, i32 }
%"class.std::__cxx11::list" = type { %"class.std::__cxx11::_List_base" }
%"class.std::__cxx11::_List_base" = type { %"struct.std::__cxx11::_List_base<proxygen::HTTPTransaction::Chunk, std::allocator<proxygen::HTTPTransaction::Chunk>>::_List_impl" }
%"struct.std::__cxx11::_List_base<proxygen::HTTPTransaction::Chunk, std::allocator<proxygen::HTTPTransaction::Chunk>>::_List_impl" = type { %"struct.std::__detail::_List_node_header" }
%"struct.std::__detail::_List_node_header" = type { %"struct.std::__detail::_List_node_base", i64 }
%"struct.std::__detail::_List_node_base" = type { ptr, ptr }
%"class.folly::Optional.76" = type { %"struct.folly::Optional<proxygen::HTTPCodec::ExAttributes>::StorageTriviallyDestructible" }
%"struct.folly::Optional<proxygen::HTTPCodec::ExAttributes>::StorageTriviallyDestructible" = type { %union.anon.77, i8, [7 x i8] }
%union.anon.77 = type { %"struct.proxygen::HTTPCodec::ExAttributes" }
%"struct.proxygen::HTTPCodec::ExAttributes" = type <{ i64, i8, [7 x i8] }>
%"class.std::set" = type { %"class.std::_Rb_tree.78" }
%"class.std::_Rb_tree.78" = type { %"struct.std::_Rb_tree<unsigned long, unsigned long, std::_Identity<unsigned long>, std::less<unsigned long>>::_Rb_tree_impl" }
%"struct.std::_Rb_tree<unsigned long, unsigned long, std::_Identity<unsigned long>, std::less<unsigned long>>::_Rb_tree_impl" = type { %"struct.std::_Rb_tree_key_compare.82", %"struct.std::_Rb_tree_header" }
%"struct.std::_Rb_tree_key_compare.82" = type { %"struct.std::less.83" }
%"struct.std::less.83" = type { i8 }
%"struct.proxygen::http2::PriorityUpdate" = type { i64, i8, i8 }
%"class.folly::Optional.74" = type { %"struct.folly::Optional<unsigned long>::StorageTriviallyDestructible" }
%"struct.folly::Optional<unsigned long>::StorageTriviallyDestructible" = type <{ %union.anon.75, i8, [7 x i8] }>
%union.anon.75 = type { i64 }
%"class.std::map.85" = type { %"class.std::_Rb_tree.86" }
%"class.std::_Rb_tree.86" = type { %"struct.std::_Rb_tree<unsigned long, std::pair<const unsigned long, proxygen::ByteEvent::EventFlags>, std::_Select1st<std::pair<const unsigned long, proxygen::ByteEvent::EventFlags>>, std::less<unsigned long>>::_Rb_tree_impl" }
%"struct.std::_Rb_tree<unsigned long, std::pair<const unsigned long, proxygen::ByteEvent::EventFlags>, std::_Select1st<std::pair<const unsigned long, proxygen::ByteEvent::EventFlags>>, std::less<unsigned long>>::_Rb_tree_impl" = type { %"struct.std::_Rb_tree_key_compare.82", %"struct.std::_Rb_tree_header" }
%"class.folly::Optional.90" = type { %"struct.folly::Optional<std::chrono::duration<long, std::ratio<1, 1000>>>::StorageTriviallyDestructible" }
%"struct.folly::Optional<std::chrono::duration<long, std::ratio<1, 1000>>>::StorageTriviallyDestructible" = type <{ %union.anon.91, i8, [7 x i8] }>
%union.anon.91 = type { %"class.std::chrono::duration.92" }
%"class.std::map.93" = type { %"class.std::_Rb_tree.94" }
%"class.std::_Rb_tree.94" = type { %"struct.std::_Rb_tree<unsigned long, std::pair<const unsigned long, proxygen::HTTPTransaction::TxnStreamWriteHandle>, std::_Select1st<std::pair<const unsigned long, proxygen::HTTPTransaction::TxnStreamWriteHandle>>, std::less<unsigned long>>::_Rb_tree_impl" }
%"struct.std::_Rb_tree<unsigned long, std::pair<const unsigned long, proxygen::HTTPTransaction::TxnStreamWriteHandle>, std::_Select1st<std::pair<const unsigned long, proxygen::HTTPTransaction::TxnStreamWriteHandle>>, std::less<unsigned long>>::_Rb_tree_impl" = type { %"struct.std::_Rb_tree_key_compare.82", %"struct.std::_Rb_tree_header" }
%"class.std::map.98" = type { %"class.std::_Rb_tree.99" }
%"class.std::_Rb_tree.99" = type { %"struct.std::_Rb_tree<unsigned long, std::pair<const unsigned long, proxygen::HTTPTransaction::TxnStreamReadHandle>, std::_Select1st<std::pair<const unsigned long, proxygen::HTTPTransaction::TxnStreamReadHandle>>, std::less<unsigned long>>::_Rb_tree_impl" }
%"struct.std::_Rb_tree<unsigned long, std::pair<const unsigned long, proxygen::HTTPTransaction::TxnStreamReadHandle>, std::_Select1st<std::pair<const unsigned long, proxygen::HTTPTransaction::TxnStreamReadHandle>>, std::less<unsigned long>>::_Rb_tree_impl" = type { %"struct.std::_Rb_tree_key_compare.82", %"struct.std::_Rb_tree_header" }
%"class.proxygen::HTTPTransaction::TxnWebTransport" = type { %"class.proxygen::WebTransport", ptr }
%"class.proxygen::WebTransport" = type { ptr }

; Function Attrs: mustprogress nounwind uwtable
define linkonce_odr noundef nonnull align 8 dereferenceable(744) ptr @_ZNK8proxygen15HTTPTransaction21getSetupTransportInfoEv(ptr noundef nonnull align 8 dereferenceable(912) %this) #5 comdat align 2 {
entry:
  %this.addr = alloca ptr, align 8
  store ptr %this, ptr %this.addr, align 8
  %this1 = load ptr, ptr %this.addr, align 8
  %transport_ = getelementptr inbounds %"class.proxygen::HTTPTransaction", ptr %this1, i32 0, i32 14
  %0 = load ptr, ptr %transport_, align 8
  %vtable = load ptr, ptr %0, align 8
  %vfn = getelementptr inbounds ptr, ptr %vtable, i64 24
  %1 = load ptr, ptr %vfn, align 8
  %call = call noundef nonnull align 8 dereferenceable(744) ptr %1(ptr noundef nonnull align 8 dereferenceable(8) %0) #3
  ret ptr %call
}

; Function Attrs: mustprogress nounwind uwtable
define noundef nonnull align 8 dereferenceable(744) ptr @_ZNK8proxygen21RequestHandlerAdaptor21getSetupTransportInfoEv(ptr noundef nonnull align 8 dereferenceable(36) %this) unnamed_addr #5 align 2 {
entry:
  %this.addr = alloca ptr, align 8
  store ptr %this, ptr %this.addr, align 8
  %this1 = load ptr, ptr %this.addr, align 8
  %add.ptr = getelementptr inbounds i8, ptr %this1, i64 8
  %txn_ = getelementptr inbounds %"class.proxygen::ResponseHandler", ptr %add.ptr, i32 0, i32 2
  %0 = load ptr, ptr %txn_, align 8
  %call = call noundef nonnull align 8 dereferenceable(744) ptr @_ZNK8proxygen15HTTPTransaction21getSetupTransportInfoEv(ptr noundef nonnull align 8 dereferenceable(912) %0) #3
  ret ptr %call
}

; Function Attrs: nounwind uwtable
define noundef ptr @_ZThn8_NK8proxygen21RequestHandlerAdaptor21getSetupTransportInfoEv(ptr noundef %this) unnamed_addr #8 align 2 {
entry:
  %this.addr = alloca ptr, align 8
  store ptr %this, ptr %this.addr, align 8
  %this1 = load ptr, ptr %this.addr, align 8
  %0 = getelementptr inbounds i8, ptr %this1, i64 -8
  %call = tail call noundef nonnull align 8 dereferenceable(744) ptr @_ZNK8proxygen21RequestHandlerAdaptor21getSetupTransportInfoEv(ptr noundef nonnull align 8 dereferenceable(36) %0) #3
  ret ptr %call
}