; Function Attrs: nounwind uwtable
define noundef ptr @_ZThn8_NK8proxygen21RequestHandlerAdaptor21getSetupTransportInfoEv(ptr nocapture noundef readonly %this) unnamed_addr #8 align 2 {
entry:
  %txn_.i = getelementptr inbounds i8, ptr %this, i64 16
  %0 = load ptr, ptr %txn_.i, align 8
  %transport_.i.i = getelementptr inbounds i8, ptr %0, i64 272
  %1 = load ptr, ptr %transport_.i.i, align 8
  %vtable.i.i = load ptr, ptr %1, align 8
  %vfn.i.i = getelementptr inbounds i8, ptr %vtable.i.i, i64 192
  %2 = load ptr, ptr %vfn.i.i, align 8
  %call.i.i = tail call noundef nonnull align 8 dereferenceable(744) ptr %2(ptr noundef nonnull align 8 dereferenceable(8) %1) #19
  ret ptr %call.i.i
}